target datalayout = "e-m:e-p270:32:32-p271:32:32-p272:64:64-i64:64-i128:128-f80:128-n8:16:32:64-S128"
target triple = "x86_64-pc-linux-gnu"

%struct._lv_anim_t = type { ptr, ptr, ptr, ptr, ptr, ptr, ptr, ptr, ptr, i32, i32, i32, i32, i32, i32, i32, i32, i32, %union._lv_anim_path_para_t, i32, i8 }
%union._lv_anim_path_para_t = type { %struct.lv_anim_bezier3_para_t }
%struct.lv_anim_bezier3_para_t = type { i16, i16, i16, i16 }

; Function Attrs: nounwind uwtable
define internal void @color_changer_event_cb(ptr noundef %0) #0 {
  %2 = alloca ptr, align 8
  %3 = alloca ptr, align 8
  %4 = alloca %struct._lv_anim_t, align 8
  %5 = alloca %struct._lv_anim_t, align 8
  store ptr %0, ptr %2, align 8, !tbaa !7
  %6 = load ptr, ptr %2, align 8, !tbaa !7
  %7 = call i32 @lv_event_get_code(ptr noundef %6)
  %8 = icmp eq i32 %7, 10
  br i1 %8, label %9, label %25

9:                                                ; preds = %1
  call void @llvm.lifetime.start.p0(i64 8, ptr %3) #5
  %10 = load ptr, ptr %2, align 8, !tbaa !7
  %11 = call ptr @lv_event_get_user_data(ptr noundef %10)
  store ptr %11, ptr %3, align 8, !tbaa !7
  %12 = load ptr, ptr %3, align 8, !tbaa !7
  %13 = call i32 @lv_obj_get_width(ptr noundef %12)
  %14 = call ptr @lv_display_get_default()
  %15 = call i32 @lv_display_get_horizontal_resolution(ptr noundef %14)
  %16 = sdiv i32 %15, 2
  %17 = icmp slt i32 %13, %16
  br i1 %17, label %18, label %21

18:                                               ; preds = %9
  call void @llvm.lifetime.start.p0(i64 128, ptr %4) #5
  call void @lv_anim_init(ptr noundef %4)
  %19 = load ptr, ptr %3, align 8, !tbaa !7
  call void @lv_anim_set_var(ptr noundef %4, ptr noundef %19)
  call void @lv_anim_set_exec_cb(ptr noundef %4, ptr noundef @color_changer_anim_cb)
  call void @lv_anim_set_values(ptr noundef %4, i32 noundef 0, i32 noundef 256)
  call void @lv_anim_set_duration(ptr noundef %4, i32 noundef 200)
  %20 = call ptr @lv_anim_start(ptr noundef %4)
  call void @llvm.lifetime.end.p0(i64 128, ptr %4) #5
  br label %24

21:                                               ; preds = %9
  call void @llvm.lifetime.start.p0(i64 128, ptr %5) #5
  call void @lv_anim_init(ptr noundef %5)
  %22 = load ptr, ptr %3, align 8, !tbaa !7
  call void @lv_anim_set_var(ptr noundef %5, ptr noundef %22)
  call void @lv_anim_set_exec_cb(ptr noundef %5, ptr noundef @color_changer_anim_cb)
  call void @lv_anim_set_values(ptr noundef %5, i32 noundef 256, i32 noundef 0)
  call void @lv_anim_set_duration(ptr noundef %5, i32 noundef 200)
  %23 = call ptr @lv_anim_start(ptr noundef %5)
  call void @llvm.lifetime.end.p0(i64 128, ptr %5) #5
  br label %24

24:                                               ; preds = %21, %18
  call void @llvm.lifetime.end.p0(i64 8, ptr %3) #5
  br label %25

25:                                               ; preds = %24, %1
  ret void
}