; Function Attrs: nounwind uwtable
define internal void @color_changer_event_cb(ptr noundef %0) #0 {
  %2 = alloca %struct._lv_anim_t, align 8
  %3 = alloca %struct._lv_anim_t, align 8
  %4 = tail call i32 @lv_event_get_code(ptr noundef %0) #5
  %5 = icmp eq i32 %4, 10
  br i1 %5, label %6, label %17

6:                                                ; preds = %1
  %7 = tail call ptr @lv_event_get_user_data(ptr noundef %0) #5
  %8 = tail call i32 @lv_obj_get_width(ptr noundef %7) #5
  %9 = tail call ptr @lv_display_get_default() #5
  %10 = tail call i32 @lv_display_get_horizontal_resolution(ptr noundef %9) #5
  %11 = sdiv i32 %10, 2
  %12 = icmp slt i32 %8, %11
  br i1 %12, label %13, label %15

13:                                               ; preds = %6
  call void @llvm.lifetime.start.p0(i64 128, ptr nonnull %2) #5
  call void @lv_anim_init(ptr noundef nonnull %2) #5
  call void @lv_anim_set_var(ptr noundef nonnull %2, ptr noundef %7) #5
  call void @lv_anim_set_exec_cb(ptr noundef nonnull %2, ptr noundef nonnull @color_changer_anim_cb) #5
  call void @lv_anim_set_values(ptr noundef nonnull %2, i32 noundef 0, i32 noundef 256) #5
  call void @lv_anim_set_duration(ptr noundef nonnull %2, i32 noundef 200) #5
  %14 = call ptr @lv_anim_start(ptr noundef nonnull %2) #5
  call void @llvm.lifetime.end.p0(i64 128, ptr nonnull %2) #5
  br label %17

15:                                               ; preds = %6
  call void @llvm.lifetime.start.p0(i64 128, ptr nonnull %3) #5
  call void @lv_anim_init(ptr noundef nonnull %3) #5
  call void @lv_anim_set_var(ptr noundef nonnull %3, ptr noundef %7) #5
  call void @lv_anim_set_exec_cb(ptr noundef nonnull %3, ptr noundef nonnull @color_changer_anim_cb) #5
  call void @lv_anim_set_values(ptr noundef nonnull %3, i32 noundef 256, i32 noundef 0) #5
  call void @lv_anim_set_duration(ptr noundef nonnull %3, i32 noundef 200) #5
  %16 = call ptr @lv_anim_start(ptr noundef nonnull %3) #5
  call void @llvm.lifetime.end.p0(i64 128, ptr nonnull %3) #5
  br label %17

17:                                               ; preds = %13, %15, %1
  ret void
}